; Function Attrs: mustprogress nounwind uwtable
define dso_local noundef ptr @_ZN4node24NodeArrayBufferAllocator10ReallocateEPvmm(ptr nocapture noundef nonnull align 8 dereferenceable(32) %this, ptr noundef %data, i64 noundef %old_size, i64 noundef %size) unnamed_addr #3 align 2 {
entry:
  %allocator_ = getelementptr inbounds i8, ptr %this, i64 24
  %0 = load ptr, ptr %allocator_, align 8
  %vtable = load ptr, ptr %0, align 8
  %vfn = getelementptr inbounds i8, ptr %vtable, i64 40
  %1 = load ptr, ptr %vfn, align 8
  %call2 = tail call noundef ptr %1(ptr noundef nonnull align 8 dereferenceable(8) %0, ptr noundef %data, i64 noundef %old_size, i64 noundef %size) #12
  %cmp.not = icmp ne ptr %call2, null
  %cmp4 = icmp eq i64 %size, 0
  %or.cond = or i1 %cmp4, %cmp.not
  br i1 %or.cond, label %monotonic.i, label %if.end

monotonic.i:                                      ; preds = %entry
  %sub = sub i64 %size, %old_size
  %total_mem_usage_ = getelementptr inbounds i8, ptr %this, i64 16
  %2 = atomicrmw add ptr %total_mem_usage_, i64 %sub monotonic, align 8
  br label %if.end

if.end:                                           ; preds = %entry, %monotonic.i
  ret ptr %call2
}